target datalayout = "e-m:e-p270:32:32-p271:32:32-p272:64:64-i64:64-i128:128-f80:128-n8:16:32:64-S128"
target triple = "x86_64-unknown-linux-gnu"

%struct.emap_s = type { %struct.rtree_s }
%struct.rtree_s = type { ptr, %struct.malloc_mutex_s, [262144 x %struct.rtree_node_elm_s] }
%struct.malloc_mutex_s = type { %union.anon }
%union.anon = type { %struct.anon }
%struct.anon = type { %struct.mutex_prof_data_t, %union.pthread_mutex_t, %struct.atomic_b_t }
%struct.mutex_prof_data_t = type { %struct.nstime_t, %struct.nstime_t, i64, i64, i32, %struct.atomic_u32_t, i64, ptr, i64 }
%struct.nstime_t = type { i64 }
%struct.atomic_u32_t = type { i32 }
%union.pthread_mutex_t = type { %struct.__pthread_mutex_s }
%struct.__pthread_mutex_s = type { i32, i32, i32, i32, i32, i16, i16, %struct.__pthread_internal_list }
%struct.__pthread_internal_list = type { ptr, ptr }
%struct.atomic_b_t = type { i8 }
%struct.rtree_node_elm_s = type { %struct.atomic_p_t }
%struct.atomic_p_t = type { ptr }
%struct.edata_s = type { i64, ptr, %union.anon.1, ptr, i64, %union.anon.2, %union.anon.5 }
%union.anon.1 = type { i64 }
%union.anon.2 = type { %union.anon.4 }
%union.anon.4 = type { %struct.edata_heap_link_t }
%struct.edata_heap_link_t = type { %struct.phn_link_s }
%struct.phn_link_s = type { ptr, ptr, ptr }
%union.anon.5 = type { %struct.slab_data_s }
%struct.slab_data_s = type { [8 x i64] }
%struct.rtree_contents_s = type { ptr, %struct.rtree_metadata_s }
%struct.rtree_metadata_s = type { i32, i32, i8, i8 }
%struct.emap_prepare_s = type { ptr, ptr, ptr, ptr }

; Function Attrs: nounwind uwtable
define internal i32 @edata_state_get(ptr noundef %edata) #0 {
entry:
  %edata.addr = alloca ptr, align 8
  store ptr %edata, ptr %edata.addr, align 8
  %0 = load ptr, ptr %edata.addr, align 8
  %e_bits = getelementptr inbounds %struct.edata_s, ptr %0, i32 0, i32 0
  %1 = load i64, ptr %e_bits, align 8
  %and = and i64 %1, 917504
  %shr = lshr i64 %and, 17
  %conv = trunc i64 %shr to i32
  ret i32 %conv
}

; Function Attrs: nounwind uwtable
define internal zeroext i1 @edata_is_head_get(ptr noundef %edata) #0 {
entry:
  %edata.addr = alloca ptr, align 8
  store ptr %edata, ptr %edata.addr, align 8
  %0 = load ptr, ptr %edata.addr, align 8
  %e_bits = getelementptr inbounds %struct.edata_s, ptr %0, i32 0, i32 0
  %1 = load i64, ptr %e_bits, align 8
  %and = and i64 %1, 17592186044416
  %shr = lshr i64 %and, 44
  %tobool = icmp ne i64 %shr, 0
  ret i1 %tobool
}

; Function Attrs: nounwind uwtable
define internal void @emap_rtree_write_acquired(ptr noundef %tsdn, ptr noundef %emap, ptr noundef %elm_a, ptr noundef %elm_b, ptr noundef %edata, i32 noundef %szind, i1 noundef zeroext %slab) #0 {
entry:
  %edata_bits.i60 = alloca i64, align 8
  %szind_bits.i61 = alloca i64, align 8
  %slab_bits.i62 = alloca i64, align 8
  %is_head_bits.i63 = alloca i64, align 8
  %state_bits.i64 = alloca i64, align 8
  %metadata_bits.i65 = alloca i64, align 8
  %contents212759 = alloca %struct.rtree_contents_s, align 8
  %edata_bits.i = alloca i64, align 8
  %szind_bits.i = alloca i64, align 8
  %slab_bits.i = alloca i64, align 8
  %is_head_bits.i = alloca i64, align 8
  %state_bits.i = alloca i64, align 8
  %metadata_bits.i = alloca i64, align 8
  %contents202858 = alloca %struct.rtree_contents_s, align 8
  %retval.i.i37 = alloca i32, align 4
  %mo.addr.i1.i38 = alloca i32, align 4
  %a.addr.i.i39 = alloca ptr, align 8
  %val.addr.i.i40 = alloca ptr, align 8
  %mo.addr.i.i41 = alloca i32, align 4
  %tsdn.addr.i42 = alloca ptr, align 8
  %rtree.addr.i43 = alloca ptr, align 8
  %elm.addr.i44 = alloca ptr, align 8
  %bits.addr.i45 = alloca ptr, align 8
  %additional.addr.i46 = alloca i32, align 4
  %retval.i.i = alloca i32, align 4
  %mo.addr.i1.i = alloca i32, align 4
  %a.addr.i.i = alloca ptr, align 8
  %val.addr.i.i = alloca ptr, align 8
  %mo.addr.i.i = alloca i32, align 4
  %tsdn.addr.i32 = alloca ptr, align 8
  %rtree.addr.i33 = alloca ptr, align 8
  %elm.addr.i34 = alloca ptr, align 8
  %bits.addr.i35 = alloca ptr, align 8
  %additional.addr.i36 = alloca i32, align 4
  %bits.addr.i29 = alloca ptr, align 8
  %additional.addr.i30 = alloca ptr, align 8
  %contents2028 = alloca %struct.rtree_contents_s, align 8
  %bits.addr.i = alloca ptr, align 8
  %additional.addr.i = alloca ptr, align 8
  %contents2127 = alloca %struct.rtree_contents_s, align 8
  %tsdn.addr.i22 = alloca ptr, align 8
  %rtree.addr.i23 = alloca ptr, align 8
  %elm.addr.i24 = alloca ptr, align 8
  %bits.i25 = alloca ptr, align 8
  %additional.i26 = alloca i32, align 4
  %contents21 = alloca %struct.rtree_contents_s, align 8
  %tsdn.addr.i = alloca ptr, align 8
  %rtree.addr.i = alloca ptr, align 8
  %elm.addr.i = alloca ptr, align 8
  %bits.i = alloca ptr, align 8
  %additional.i = alloca i32, align 4
  %contents20 = alloca %struct.rtree_contents_s, align 8
  %tsdn.addr = alloca ptr, align 8
  %emap.addr = alloca ptr, align 8
  %elm_a.addr = alloca ptr, align 8
  %elm_b.addr = alloca ptr, align 8
  %edata.addr = alloca ptr, align 8
  %szind.addr = alloca i32, align 4
  %slab.addr = alloca i8, align 1
  %contents = alloca %struct.rtree_contents_s, align 8
  store ptr %tsdn, ptr %tsdn.addr, align 8
  store ptr %emap, ptr %emap.addr, align 8
  store ptr %elm_a, ptr %elm_a.addr, align 8
  store ptr %elm_b, ptr %elm_b.addr, align 8
  store ptr %edata, ptr %edata.addr, align 8
  store i32 %szind, ptr %szind.addr, align 4
  %frombool = zext i1 %slab to i8
  store i8 %frombool, ptr %slab.addr, align 1
  %0 = load ptr, ptr %edata.addr, align 8
  %edata1 = getelementptr inbounds %struct.rtree_contents_s, ptr %contents, i32 0, i32 0
  store ptr %0, ptr %edata1, align 8
  %1 = load i32, ptr %szind.addr, align 4
  %metadata = getelementptr inbounds %struct.rtree_contents_s, ptr %contents, i32 0, i32 1
  %szind2 = getelementptr inbounds %struct.rtree_metadata_s, ptr %metadata, i32 0, i32 0
  store i32 %1, ptr %szind2, align 8
  %2 = load i8, ptr %slab.addr, align 1
  %tobool = trunc i8 %2 to i1
  %metadata3 = getelementptr inbounds %struct.rtree_contents_s, ptr %contents, i32 0, i32 1
  %slab4 = getelementptr inbounds %struct.rtree_metadata_s, ptr %metadata3, i32 0, i32 3
  %frombool5 = zext i1 %tobool to i8
  store i8 %frombool5, ptr %slab4, align 1
  %3 = load ptr, ptr %edata.addr, align 8
  %cmp = icmp eq ptr %3, null
  br i1 %cmp, label %cond.true, label %cond.false

cond.true:                                        ; preds = %entry
  br label %cond.end

cond.false:                                       ; preds = %entry
  %4 = load ptr, ptr %edata.addr, align 8
  %call = call zeroext i1 @edata_is_head_get(ptr noundef %4)
  %conv = zext i1 %call to i32
  br label %cond.end

cond.end:                                         ; preds = %cond.false, %cond.true
  %cond = phi i32 [ 0, %cond.true ], [ %conv, %cond.false ]
  %tobool6 = icmp ne i32 %cond, 0
  %metadata7 = getelementptr inbounds %struct.rtree_contents_s, ptr %contents, i32 0, i32 1
  %is_head = getelementptr inbounds %struct.rtree_metadata_s, ptr %metadata7, i32 0, i32 2
  %frombool8 = zext i1 %tobool6 to i8
  store i8 %frombool8, ptr %is_head, align 8
  %5 = load ptr, ptr %edata.addr, align 8
  %cmp9 = icmp eq ptr %5, null
  br i1 %cmp9, label %cond.true11, label %cond.false12

cond.true11:                                      ; preds = %cond.end
  br label %cond.end14

cond.false12:                                     ; preds = %cond.end
  %6 = load ptr, ptr %edata.addr, align 8
  %call13 = call i32 @edata_state_get(ptr noundef %6)
  br label %cond.end14

cond.end14:                                       ; preds = %cond.false12, %cond.true11
  %cond15 = phi i32 [ 0, %cond.true11 ], [ %call13, %cond.false12 ]
  %metadata16 = getelementptr inbounds %struct.rtree_contents_s, ptr %contents, i32 0, i32 1
  %state = getelementptr inbounds %struct.rtree_metadata_s, ptr %metadata16, i32 0, i32 1
  store i32 %cond15, ptr %state, align 4
  %7 = load ptr, ptr %tsdn.addr, align 8
  %8 = load ptr, ptr %emap.addr, align 8
  %rtree = getelementptr inbounds %struct.emap_s, ptr %8, i32 0, i32 0
  %9 = load ptr, ptr %elm_a.addr, align 8
  call void @llvm.memcpy.p0.p0.i64(ptr align 1 %contents21, ptr align 1 %contents, i64 24, i1 false)
  store ptr %7, ptr %tsdn.addr.i22, align 8
  store ptr %rtree, ptr %rtree.addr.i23, align 8
  store ptr %9, ptr %elm.addr.i24, align 8
  call void @llvm.memcpy.p0.p0.i64(ptr align 1 %contents2127, ptr align 1 %contents21, i64 24, i1 false)
  store ptr %bits.i25, ptr %bits.addr.i, align 8
  store ptr %additional.i26, ptr %additional.addr.i, align 8
  call void @llvm.memcpy.p0.p0.i64(ptr align 1 %contents212759, ptr align 1 %contents2127, i64 24, i1 false)
  %10 = load ptr, ptr %contents212759, align 8
  %11 = ptrtoint ptr %10 to i64
  %and.i66 = and i64 %11, 281474976710655
  store i64 %and.i66, ptr %edata_bits.i60, align 8
  %metadata.i67 = getelementptr inbounds %struct.rtree_contents_s, ptr %contents212759, i32 0, i32 1
  %12 = load i32, ptr %metadata.i67, align 8
  %conv.i68 = zext i32 %12 to i64
  %shl.i69 = shl i64 %conv.i68, 48
  store i64 %shl.i69, ptr %szind_bits.i61, align 8
  %metadata1.i70 = getelementptr inbounds %struct.rtree_contents_s, ptr %contents212759, i32 0, i32 1
  %slab.i71 = getelementptr inbounds %struct.rtree_metadata_s, ptr %metadata1.i70, i32 0, i32 3
  %13 = load i8, ptr %slab.i71, align 1
  %tobool.i72 = trunc i8 %13 to i1
  %conv2.i73 = zext i1 %tobool.i72 to i64
  store i64 %conv2.i73, ptr %slab_bits.i62, align 8
  %metadata3.i74 = getelementptr inbounds %struct.rtree_contents_s, ptr %contents212759, i32 0, i32 1
  %is_head.i75 = getelementptr inbounds %struct.rtree_metadata_s, ptr %metadata3.i74, i32 0, i32 2
  %14 = load i8, ptr %is_head.i75, align 8
  %tobool4.i76 = trunc i8 %14 to i1
  %conv5.i77 = zext i1 %tobool4.i76 to i64
  %shl6.i78 = shl i64 %conv5.i77, 1
  store i64 %shl6.i78, ptr %is_head_bits.i63, align 8
  %metadata7.i79 = getelementptr inbounds %struct.rtree_contents_s, ptr %contents212759, i32 0, i32 1
  %state.i80 = getelementptr inbounds %struct.rtree_metadata_s, ptr %metadata7.i79, i32 0, i32 1
  %15 = load i32, ptr %state.i80, align 4
  %conv8.i81 = zext i32 %15 to i64
  %shl9.i82 = shl i64 %conv8.i81, 2
  store i64 %shl9.i82, ptr %state_bits.i64, align 8
  %16 = load i64, ptr %szind_bits.i61, align 8
  %17 = load i64, ptr %state_bits.i64, align 8
  %or.i83 = or i64 %16, %17
  %18 = load i64, ptr %is_head_bits.i63, align 8
  %or10.i84 = or i64 %or.i83, %18
  %19 = load i64, ptr %slab_bits.i62, align 8
  %or11.i85 = or i64 %or10.i84, %19
  store i64 %or11.i85, ptr %metadata_bits.i65, align 8
  %20 = load i64, ptr %edata_bits.i60, align 8
  %21 = load i64, ptr %metadata_bits.i65, align 8
  %or14.i86 = or i64 %20, %21
  %22 = inttoptr i64 %or14.i86 to ptr
  %23 = load ptr, ptr %bits.addr.i, align 8
  store ptr %22, ptr %23, align 8
  %24 = load ptr, ptr %tsdn.addr.i22, align 8
  %25 = load ptr, ptr %rtree.addr.i23, align 8
  %26 = load ptr, ptr %elm.addr.i24, align 8
  %27 = load ptr, ptr %bits.i25, align 8
  %28 = load i32, ptr %additional.i26, align 4
  store ptr %24, ptr %tsdn.addr.i32, align 8
  store ptr %25, ptr %rtree.addr.i33, align 8
  store ptr %26, ptr %elm.addr.i34, align 8
  store ptr %27, ptr %bits.addr.i35, align 8
  store i32 %28, ptr %additional.addr.i36, align 4
  %29 = load ptr, ptr %elm.addr.i34, align 8
  %30 = load ptr, ptr %bits.addr.i35, align 8
  store ptr %29, ptr %a.addr.i.i, align 8
  store ptr %30, ptr %val.addr.i.i, align 8
  store i32 2, ptr %mo.addr.i.i, align 4
  %31 = load ptr, ptr %a.addr.i.i, align 8
  %32 = load i32, ptr %mo.addr.i.i, align 4
  store i32 %32, ptr %mo.addr.i1.i, align 4
  %33 = load i32, ptr %mo.addr.i1.i, align 4
  switch i32 %33, label %sw.epilog.i.i [
    i32 0, label %sw.bb.i.i
    i32 1, label %sw.bb1.i.i
    i32 2, label %sw.bb2.i.i
    i32 3, label %sw.bb3.i.i
    i32 4, label %sw.bb4.i.i
  ]

sw.bb.i.i:                                        ; preds = %cond.end14
  store i32 0, ptr %retval.i.i, align 4
  br label %atomic_enum_to_builtin.exit.i

sw.bb1.i.i:                                       ; preds = %cond.end14
  store i32 2, ptr %retval.i.i, align 4
  br label %atomic_enum_to_builtin.exit.i

sw.bb2.i.i:                                       ; preds = %cond.end14
  store i32 3, ptr %retval.i.i, align 4
  br label %atomic_enum_to_builtin.exit.i

sw.bb3.i.i:                                       ; preds = %cond.end14
  store i32 4, ptr %retval.i.i, align 4
  br label %atomic_enum_to_builtin.exit.i

sw.bb4.i.i:                                       ; preds = %cond.end14
  store i32 5, ptr %retval.i.i, align 4
  br label %atomic_enum_to_builtin.exit.i

sw.epilog.i.i:                                    ; preds = %cond.end14
  unreachable

atomic_enum_to_builtin.exit.i:                    ; preds = %sw.bb4.i.i, %sw.bb3.i.i, %sw.bb2.i.i, %sw.bb1.i.i, %sw.bb.i.i
  %34 = load i32, ptr %retval.i.i, align 4
  switch i32 %34, label %monotonic.i.i [
    i32 3, label %release.i.i
    i32 5, label %seqcst.i.i
  ]

monotonic.i.i:                                    ; preds = %atomic_enum_to_builtin.exit.i
  %35 = load i64, ptr %val.addr.i.i, align 8
  store atomic i64 %35, ptr %31 monotonic, align 8
  br label %rtree_leaf_elm_write_commit.exit

release.i.i:                                      ; preds = %atomic_enum_to_builtin.exit.i
  %36 = load i64, ptr %val.addr.i.i, align 8
  store atomic i64 %36, ptr %31 release, align 8
  br label %rtree_leaf_elm_write_commit.exit

seqcst.i.i:                                       ; preds = %atomic_enum_to_builtin.exit.i
  %37 = load i64, ptr %val.addr.i.i, align 8
  store atomic i64 %37, ptr %31 seq_cst, align 8
  br label %rtree_leaf_elm_write_commit.exit

rtree_leaf_elm_write_commit.exit:                 ; preds = %seqcst.i.i, %release.i.i, %monotonic.i.i
  %38 = load ptr, ptr %elm_b.addr, align 8
  %cmp17 = icmp ne ptr %38, null
  br i1 %cmp17, label %if.then, label %if.end

if.then:                                          ; preds = %rtree_leaf_elm_write_commit.exit
  %39 = load ptr, ptr %tsdn.addr, align 8
  %40 = load ptr, ptr %emap.addr, align 8
  %rtree19 = getelementptr inbounds %struct.emap_s, ptr %40, i32 0, i32 0
  %41 = load ptr, ptr %elm_b.addr, align 8
  call void @llvm.memcpy.p0.p0.i64(ptr align 1 %contents20, ptr align 1 %contents, i64 24, i1 false)
  store ptr %39, ptr %tsdn.addr.i, align 8
  store ptr %rtree19, ptr %rtree.addr.i, align 8
  store ptr %41, ptr %elm.addr.i, align 8
  call void @llvm.memcpy.p0.p0.i64(ptr align 1 %contents2028, ptr align 1 %contents20, i64 24, i1 false)
  store ptr %bits.i, ptr %bits.addr.i29, align 8
  store ptr %additional.i, ptr %additional.addr.i30, align 8
  call void @llvm.memcpy.p0.p0.i64(ptr align 1 %contents202858, ptr align 1 %contents2028, i64 24, i1 false)
  %42 = load ptr, ptr %contents202858, align 8
  %43 = ptrtoint ptr %42 to i64
  %and.i = and i64 %43, 281474976710655
  store i64 %and.i, ptr %edata_bits.i, align 8
  %metadata.i = getelementptr inbounds %struct.rtree_contents_s, ptr %contents202858, i32 0, i32 1
  %44 = load i32, ptr %metadata.i, align 8
  %conv.i = zext i32 %44 to i64
  %shl.i = shl i64 %conv.i, 48
  store i64 %shl.i, ptr %szind_bits.i, align 8
  %metadata1.i = getelementptr inbounds %struct.rtree_contents_s, ptr %contents202858, i32 0, i32 1
  %slab.i = getelementptr inbounds %struct.rtree_metadata_s, ptr %metadata1.i, i32 0, i32 3
  %45 = load i8, ptr %slab.i, align 1
  %tobool.i = trunc i8 %45 to i1
  %conv2.i = zext i1 %tobool.i to i64
  store i64 %conv2.i, ptr %slab_bits.i, align 8
  %metadata3.i = getelementptr inbounds %struct.rtree_contents_s, ptr %contents202858, i32 0, i32 1
  %is_head.i = getelementptr inbounds %struct.rtree_metadata_s, ptr %metadata3.i, i32 0, i32 2
  %46 = load i8, ptr %is_head.i, align 8
  %tobool4.i = trunc i8 %46 to i1
  %conv5.i = zext i1 %tobool4.i to i64
  %shl6.i = shl i64 %conv5.i, 1
  store i64 %shl6.i, ptr %is_head_bits.i, align 8
  %metadata7.i = getelementptr inbounds %struct.rtree_contents_s, ptr %contents202858, i32 0, i32 1
  %state.i = getelementptr inbounds %struct.rtree_metadata_s, ptr %metadata7.i, i32 0, i32 1
  %47 = load i32, ptr %state.i, align 4
  %conv8.i = zext i32 %47 to i64
  %shl9.i = shl i64 %conv8.i, 2
  store i64 %shl9.i, ptr %state_bits.i, align 8
  %48 = load i64, ptr %szind_bits.i, align 8
  %49 = load i64, ptr %state_bits.i, align 8
  %or.i = or i64 %48, %49
  %50 = load i64, ptr %is_head_bits.i, align 8
  %or10.i = or i64 %or.i, %50
  %51 = load i64, ptr %slab_bits.i, align 8
  %or11.i = or i64 %or10.i, %51
  store i64 %or11.i, ptr %metadata_bits.i, align 8
  %52 = load i64, ptr %edata_bits.i, align 8
  %53 = load i64, ptr %metadata_bits.i, align 8
  %or14.i = or i64 %52, %53
  %54 = inttoptr i64 %or14.i to ptr
  %55 = load ptr, ptr %bits.addr.i29, align 8
  store ptr %54, ptr %55, align 8
  %56 = load ptr, ptr %tsdn.addr.i, align 8
  %57 = load ptr, ptr %rtree.addr.i, align 8
  %58 = load ptr, ptr %elm.addr.i, align 8
  %59 = load ptr, ptr %bits.i, align 8
  %60 = load i32, ptr %additional.i, align 4
  store ptr %56, ptr %tsdn.addr.i42, align 8
  store ptr %57, ptr %rtree.addr.i43, align 8
  store ptr %58, ptr %elm.addr.i44, align 8
  store ptr %59, ptr %bits.addr.i45, align 8
  store i32 %60, ptr %additional.addr.i46, align 4
  %61 = load ptr, ptr %elm.addr.i44, align 8
  %62 = load ptr, ptr %bits.addr.i45, align 8
  store ptr %61, ptr %a.addr.i.i39, align 8
  store ptr %62, ptr %val.addr.i.i40, align 8
  store i32 2, ptr %mo.addr.i.i41, align 4
  %63 = load ptr, ptr %a.addr.i.i39, align 8
  %64 = load i32, ptr %mo.addr.i.i41, align 4
  store i32 %64, ptr %mo.addr.i1.i38, align 4
  %65 = load i32, ptr %mo.addr.i1.i38, align 4
  switch i32 %65, label %sw.epilog.i.i56 [
    i32 0, label %sw.bb.i.i55
    i32 1, label %sw.bb1.i.i54
    i32 2, label %sw.bb2.i.i53
    i32 3, label %sw.bb3.i.i52
    i32 4, label %sw.bb4.i.i47
  ]

sw.bb.i.i55:                                      ; preds = %if.then
  store i32 0, ptr %retval.i.i37, align 4
  br label %atomic_enum_to_builtin.exit.i48

sw.bb1.i.i54:                                     ; preds = %if.then
  store i32 2, ptr %retval.i.i37, align 4
  br label %atomic_enum_to_builtin.exit.i48

sw.bb2.i.i53:                                     ; preds = %if.then
  store i32 3, ptr %retval.i.i37, align 4
  br label %atomic_enum_to_builtin.exit.i48

sw.bb3.i.i52:                                     ; preds = %if.then
  store i32 4, ptr %retval.i.i37, align 4
  br label %atomic_enum_to_builtin.exit.i48

sw.bb4.i.i47:                                     ; preds = %if.then
  store i32 5, ptr %retval.i.i37, align 4
  br label %atomic_enum_to_builtin.exit.i48

sw.epilog.i.i56:                                  ; preds = %if.then
  unreachable

atomic_enum_to_builtin.exit.i48:                  ; preds = %sw.bb4.i.i47, %sw.bb3.i.i52, %sw.bb2.i.i53, %sw.bb1.i.i54, %sw.bb.i.i55
  %66 = load i32, ptr %retval.i.i37, align 4
  switch i32 %66, label %monotonic.i.i51 [
    i32 3, label %release.i.i50
    i32 5, label %seqcst.i.i49
  ]

monotonic.i.i51:                                  ; preds = %atomic_enum_to_builtin.exit.i48
  %67 = load i64, ptr %val.addr.i.i40, align 8
  store atomic i64 %67, ptr %63 monotonic, align 8
  br label %rtree_leaf_elm_write_commit.exit57

release.i.i50:                                    ; preds = %atomic_enum_to_builtin.exit.i48
  %68 = load i64, ptr %val.addr.i.i40, align 8
  store atomic i64 %68, ptr %63 release, align 8
  br label %rtree_leaf_elm_write_commit.exit57

seqcst.i.i49:                                     ; preds = %atomic_enum_to_builtin.exit.i48
  %69 = load i64, ptr %val.addr.i.i40, align 8
  store atomic i64 %69, ptr %63 seq_cst, align 8
  br label %rtree_leaf_elm_write_commit.exit57

rtree_leaf_elm_write_commit.exit57:               ; preds = %seqcst.i.i49, %release.i.i50, %monotonic.i.i51
  br label %if.end

if.end:                                           ; preds = %rtree_leaf_elm_write_commit.exit57, %rtree_leaf_elm_write_commit.exit
  ret void
}

; Function Attrs: nounwind uwtable
define hidden void @emap_split_commit(ptr noundef %tsdn, ptr noundef %emap, ptr noundef %prepare, ptr noundef %lead, i64 noundef %size_a, ptr noundef %trail, i64 noundef %size_b) #0 {
entry:
  %tsdn.addr = alloca ptr, align 8
  %emap.addr = alloca ptr, align 8
  %prepare.addr = alloca ptr, align 8
  %lead.addr = alloca ptr, align 8
  %size_a.addr = alloca i64, align 8
  %trail.addr = alloca ptr, align 8
  %size_b.addr = alloca i64, align 8
  store ptr %tsdn, ptr %tsdn.addr, align 8
  store ptr %emap, ptr %emap.addr, align 8
  store ptr %prepare, ptr %prepare.addr, align 8
  store ptr %lead, ptr %lead.addr, align 8
  store i64 %size_a, ptr %size_a.addr, align 8
  store ptr %trail, ptr %trail.addr, align 8
  store i64 %size_b, ptr %size_b.addr, align 8
  %0 = load ptr, ptr %tsdn.addr, align 8
  %1 = load ptr, ptr %emap.addr, align 8
  %2 = load ptr, ptr %prepare.addr, align 8
  %lead_elm_a = getelementptr inbounds %struct.emap_prepare_s, ptr %2, i32 0, i32 0
  %3 = load ptr, ptr %lead_elm_a, align 8
  %4 = load ptr, ptr %prepare.addr, align 8
  %lead_elm_b = getelementptr inbounds %struct.emap_prepare_s, ptr %4, i32 0, i32 1
  %5 = load ptr, ptr %lead_elm_b, align 8
  %6 = load ptr, ptr %lead.addr, align 8
  call void @emap_rtree_write_acquired(ptr noundef %0, ptr noundef %1, ptr noundef %3, ptr noundef %5, ptr noundef %6, i32 noundef 235, i1 noundef zeroext false)
  %7 = load ptr, ptr %tsdn.addr, align 8
  %8 = load ptr, ptr %emap.addr, align 8
  %9 = load ptr, ptr %prepare.addr, align 8
  %trail_elm_a = getelementptr inbounds %struct.emap_prepare_s, ptr %9, i32 0, i32 2
  %10 = load ptr, ptr %trail_elm_a, align 8
  %11 = load ptr, ptr %prepare.addr, align 8
  %trail_elm_b = getelementptr inbounds %struct.emap_prepare_s, ptr %11, i32 0, i32 3
  %12 = load ptr, ptr %trail_elm_b, align 8
  %13 = load ptr, ptr %trail.addr, align 8
  call void @emap_rtree_write_acquired(ptr noundef %7, ptr noundef %8, ptr noundef %10, ptr noundef %12, ptr noundef %13, i32 noundef 235, i1 noundef zeroext false)
  ret void
}