; Function Attrs: mustprogress nofree norecurse nounwind willreturn memory(readwrite, inaccessiblemem: none) uwtable
define hidden void @emap_split_commit(ptr nocapture noundef readnone %tsdn, ptr nocapture noundef readnone %emap, ptr nocapture noundef readonly %prepare, ptr noundef %lead, i64 noundef %size_a, ptr noundef %trail, i64 noundef %size_b) local_unnamed_addr #3 {
entry:
  %0 = load ptr, ptr %prepare, align 8
  %lead_elm_b = getelementptr inbounds i8, ptr %prepare, i64 8
  %1 = load ptr, ptr %lead_elm_b, align 8
  %cmp.i = icmp eq ptr %lead, null
  br i1 %cmp.i, label %cond.end14.i, label %cond.false12.i

cond.false12.i:                                   ; preds = %entry
  %edata.val.i = load i64, ptr %lead, align 8
  %2 = lshr i64 %edata.val.i, 43
  %3 = and i64 %2, 2
  %4 = lshr i64 %edata.val.i, 15
  %5 = and i64 %4, 28
  %6 = or disjoint i64 %3, %5
  %7 = or disjoint i64 %6, 66146619527004160
  br label %cond.end14.i

cond.end14.i:                                     ; preds = %cond.false12.i, %entry
  %or10.i84.i = phi i64 [ %7, %cond.false12.i ], [ 66146619527004160, %entry ]
  %8 = ptrtoint ptr %lead to i64
  %and.i66.i = and i64 %8, 281474976710655
  %or14.i86.i = or i64 %or10.i84.i, %and.i66.i
  store atomic i64 %or14.i86.i, ptr %0 release, align 8
  %cmp17.not.i = icmp eq ptr %1, null
  br i1 %cmp17.not.i, label %emap_rtree_write_acquired.exit, label %release.i.i50.i

release.i.i50.i:                                  ; preds = %cond.end14.i
  store atomic i64 %or14.i86.i, ptr %1 release, align 8
  br label %emap_rtree_write_acquired.exit

emap_rtree_write_acquired.exit:                   ; preds = %cond.end14.i, %release.i.i50.i
  %trail_elm_a = getelementptr inbounds i8, ptr %prepare, i64 16
  %9 = load ptr, ptr %trail_elm_a, align 8
  %trail_elm_b = getelementptr inbounds i8, ptr %prepare, i64 24
  %10 = load ptr, ptr %trail_elm_b, align 8
  %cmp.i6 = icmp eq ptr %trail, null
  br i1 %cmp.i6, label %cond.end14.i9, label %cond.false12.i7

cond.false12.i7:                                  ; preds = %emap_rtree_write_acquired.exit
  %edata.val.i8 = load i64, ptr %trail, align 8
  %11 = lshr i64 %edata.val.i8, 43
  %12 = and i64 %11, 2
  %13 = lshr i64 %edata.val.i8, 15
  %14 = and i64 %13, 28
  %15 = or disjoint i64 %12, %14
  %16 = or disjoint i64 %15, 66146619527004160
  br label %cond.end14.i9

cond.end14.i9:                                    ; preds = %cond.false12.i7, %emap_rtree_write_acquired.exit
  %or10.i84.i14 = phi i64 [ %16, %cond.false12.i7 ], [ 66146619527004160, %emap_rtree_write_acquired.exit ]
  %17 = ptrtoint ptr %trail to i64
  %and.i66.i12 = and i64 %17, 281474976710655
  %or14.i86.i15 = or i64 %or10.i84.i14, %and.i66.i12
  store atomic i64 %or14.i86.i15, ptr %9 release, align 8
  %cmp17.not.i16 = icmp eq ptr %10, null
  br i1 %cmp17.not.i16, label %emap_rtree_write_acquired.exit18, label %release.i.i50.i17

release.i.i50.i17:                                ; preds = %cond.end14.i9
  store atomic i64 %or14.i86.i15, ptr %10 release, align 8
  br label %emap_rtree_write_acquired.exit18

emap_rtree_write_acquired.exit18:                 ; preds = %cond.end14.i9, %release.i.i50.i17
  ret void
}